; Function Attrs: mustprogress uwtable
define hidden noundef ptr @_ZN8datatype4util27get_datatype_parameter_sortEP4sortj(ptr noundef nonnull readnone align 8 captures(none) dereferenceable(24) %0, ptr noundef readonly captures(none) %1, i32 noundef %2) local_unnamed_addr #4 align 2 {
  %4 = add i32 %2, 1
  %5 = getelementptr inbounds nuw i8, ptr %1, i64 24
  %6 = load ptr, ptr %5, align 8, !tbaa !65
  %7 = getelementptr inbounds nuw i8, ptr %6, i64 8
  %8 = load ptr, ptr %7, align 8, !tbaa !56
  %9 = zext i32 %4 to i64
  %10 = getelementptr inbounds nuw %class.parameter, ptr %8, i64 %9
  %11 = getelementptr inbounds nuw i8, ptr %10, i64 8
  %12 = load i8, ptr %11, align 8, !tbaa !35
  %.not.i.i.i = icmp eq i8 %12, 1
  br i1 %.not.i.i.i, label %_ZNK9parameter7get_astEv.exit, label %13

13:                                               ; preds = %3
  %14 = tail call ptr @__cxa_allocate_exception(i64 16) #28
  store ptr getelementptr inbounds nuw inrange(-16, 24) (i8, ptr @_ZTVSt18bad_variant_access, i64 16), ptr %14, align 8, !tbaa !68
  %15 = getelementptr inbounds nuw i8, ptr %14, i64 8
  store ptr @.str.58, ptr %15, align 8, !tbaa !70
  tail call void @__cxa_throw(ptr nonnull %14, ptr nonnull @_ZTISt18bad_variant_access, ptr nonnull @_ZNSt9exceptionD2Ev) #30
  unreachable

_ZNK9parameter7get_astEv.exit:                    ; preds = %3
  %16 = load ptr, ptr %10, align 8, !tbaa !73
  ret ptr %16
}